target datalayout = "e-m:e-p270:32:32-p271:32:32-p272:64:64-i64:64-i128:128-f80:128-n8:16:32:64-S128"
target triple = "x86_64-pc-linux-gnu"

; Function Attrs: nounwind uwtable
define internal i32 @do_evp_rand(ptr noundef %0, ptr noundef %1) #0 {
  %3 = alloca ptr, align 8
  %4 = alloca ptr, align 8
  %5 = alloca i32, align 4
  %6 = alloca ptr, align 8
  %7 = alloca [4096 x i8], align 16
  store ptr %0, ptr %3, align 8, !tbaa !53
  store ptr %1, ptr %4, align 8, !tbaa !43
  call void @llvm.lifetime.start.p0(i64 4, ptr %5) #6
  store i32 1, ptr %5, align 4, !tbaa !37
  call void @llvm.lifetime.start.p0(i64 8, ptr %6) #6
  store ptr null, ptr %6, align 8, !tbaa !89
  call void @llvm.lifetime.start.p0(i64 4096, ptr %7) #6
  %8 = load ptr, ptr %3, align 8, !tbaa !53
  %9 = call ptr @EVP_RAND_CTX_new(ptr noundef %8, ptr noundef null)
  store ptr %9, ptr %6, align 8, !tbaa !89
  %10 = icmp ne ptr %9, null
  br i1 %10, label %12, label %11

11:                                               ; preds = %2
  store i32 0, ptr %5, align 4, !tbaa !37
  br label %30

12:                                               ; preds = %2
  %13 = load ptr, ptr %6, align 8, !tbaa !89
  %14 = load ptr, ptr %4, align 8, !tbaa !43
  %15 = call i32 @EVP_RAND_CTX_set_params(ptr noundef %13, ptr noundef %14)
  %16 = icmp sle i32 %15, 0
  br i1 %16, label %17, label %18

17:                                               ; preds = %12
  store i32 0, ptr %5, align 4, !tbaa !37
  br label %30

18:                                               ; preds = %12
  %19 = load ptr, ptr %6, align 8, !tbaa !89
  %20 = getelementptr inbounds [4096 x i8], ptr %7, i64 0, i64 0
  %21 = call i32 @EVP_RAND_generate(ptr noundef %19, ptr noundef %20, i64 noundef 4096, i32 noundef 0, i32 noundef 0, ptr noundef null, i64 noundef 0)
  %22 = icmp ne i32 %21, 0
  br i1 %22, label %24, label %23

23:                                               ; preds = %18
  store i32 0, ptr %5, align 4, !tbaa !37
  br label %30

24:                                               ; preds = %18
  %25 = load ptr, ptr %6, align 8, !tbaa !89
  %26 = call i32 @EVP_RAND_reseed(ptr noundef %25, i32 noundef 0, ptr noundef null, i64 noundef 0, ptr noundef null, i64 noundef 0)
  %27 = icmp ne i32 %26, 0
  br i1 %27, label %29, label %28

28:                                               ; preds = %24
  store i32 0, ptr %5, align 4, !tbaa !37
  br label %30

29:                                               ; preds = %24
  br label %30

30:                                               ; preds = %29, %28, %23, %17, %11
  %31 = load ptr, ptr %6, align 8, !tbaa !89
  call void @EVP_RAND_CTX_free(ptr noundef %31)
  %32 = load i32, ptr %5, align 4, !tbaa !37
  call void @llvm.lifetime.end.p0(i64 4096, ptr %7) #6
  call void @llvm.lifetime.end.p0(i64 8, ptr %6) #6
  call void @llvm.lifetime.end.p0(i64 4, ptr %5) #6
  ret i32 %32
}