; Function Attrs: nounwind uwtable
define internal fastcc void @do_evp_rand(ptr noundef nonnull %0, ptr noundef nonnull %1) unnamed_addr #0 {
  %3 = alloca [4096 x i8], align 16
  call void @llvm.lifetime.start.p0(i64 4096, ptr nonnull %3) #6
  %4 = tail call ptr @EVP_RAND_CTX_new(ptr noundef nonnull %0, ptr noundef null) #6
  %.not = icmp eq ptr %4, null
  br i1 %.not, label %12, label %5

5:                                                ; preds = %2
  %6 = tail call i32 @EVP_RAND_CTX_set_params(ptr noundef nonnull %4, ptr noundef nonnull %1) #6
  %7 = icmp slt i32 %6, 1
  br i1 %7, label %12, label %8

8:                                                ; preds = %5
  %9 = call i32 @EVP_RAND_generate(ptr noundef nonnull %4, ptr noundef nonnull %3, i64 noundef 4096, i32 noundef 0, i32 noundef 0, ptr noundef null, i64 noundef 0) #6
  %.not7 = icmp eq i32 %9, 0
  br i1 %.not7, label %12, label %10

10:                                               ; preds = %8
  %11 = call i32 @EVP_RAND_reseed(ptr noundef nonnull %4, i32 noundef 0, ptr noundef null, i64 noundef 0, ptr noundef null, i64 noundef 0) #6
  br label %12

12:                                               ; preds = %10, %8, %5, %2
  call void @EVP_RAND_CTX_free(ptr noundef %4) #6
  call void @llvm.lifetime.end.p0(i64 4096, ptr nonnull %3) #6
  ret void
}